; Function Attrs: nounwind uwtable
define dso_local i64 @ginarrayextract(ptr noundef readonly captures(none) %0) local_unnamed_addr #0 {
  %2 = alloca i16, align 2
  %3 = alloca i8, align 1
  %4 = alloca i8, align 1
  %5 = alloca ptr, align 8
  %6 = alloca ptr, align 8
  %7 = alloca i32, align 4
  %8 = getelementptr inbounds nuw i8, ptr %0, i64 32
  %9 = load i64, ptr %8, align 8
  %10 = inttoptr i64 %9 to ptr
  %11 = tail call ptr @pg_detoast_datum_copy(ptr noundef %10) #5
  %12 = getelementptr inbounds nuw i8, ptr %0, i64 48
  %13 = load i64, ptr %12, align 8
  %14 = inttoptr i64 %13 to ptr
  %15 = getelementptr inbounds nuw i8, ptr %0, i64 64
  %16 = load i64, ptr %15, align 8
  %17 = inttoptr i64 %16 to ptr
  call void @llvm.lifetime.start.p0(i64 2, ptr nonnull %2) #5
  call void @llvm.lifetime.start.p0(i64 1, ptr nonnull %3) #5
  call void @llvm.lifetime.start.p0(i64 1, ptr nonnull %4) #5
  call void @llvm.lifetime.start.p0(i64 8, ptr nonnull %5) #5
  call void @llvm.lifetime.start.p0(i64 8, ptr nonnull %6) #5
  call void @llvm.lifetime.start.p0(i64 4, ptr nonnull %7) #5
  %18 = getelementptr inbounds nuw i8, ptr %11, i64 12
  %19 = load i32, ptr %18, align 4
  call void @get_typlenbyvalalign(i32 noundef %19, ptr noundef nonnull %2, ptr noundef nonnull %3, ptr noundef nonnull %4) #5
  %20 = load i32, ptr %18, align 4
  %21 = load i16, ptr %2, align 2
  %22 = sext i16 %21 to i32
  %23 = load i8, ptr %3, align 1, !range !4, !noundef !5
  %24 = trunc nuw i8 %23 to i1
  %25 = load i8, ptr %4, align 1
  call void @deconstruct_array(ptr noundef %11, i32 noundef %20, i32 noundef %22, i1 noundef zeroext %24, i8 noundef signext %25, ptr noundef nonnull %5, ptr noundef nonnull %6, ptr noundef nonnull %7) #5
  %26 = load i32, ptr %7, align 4
  store i32 %26, ptr %14, align 4
  %27 = load ptr, ptr %6, align 8
  store ptr %27, ptr %17, align 8
  %28 = load ptr, ptr %5, align 8
  %29 = ptrtoint ptr %28 to i64
  call void @llvm.lifetime.end.p0(i64 4, ptr nonnull %7) #5
  call void @llvm.lifetime.end.p0(i64 8, ptr nonnull %6) #5
  call void @llvm.lifetime.end.p0(i64 8, ptr nonnull %5) #5
  call void @llvm.lifetime.end.p0(i64 1, ptr nonnull %4) #5
  call void @llvm.lifetime.end.p0(i64 1, ptr nonnull %3) #5
  call void @llvm.lifetime.end.p0(i64 2, ptr nonnull %2) #5
  ret i64 %29
}